target datalayout = "e-m:e-p270:32:32-p271:32:32-p272:64:64-i64:64-i128:128-f80:128-n8:16:32:64-S128"
target triple = "x86_64-pc-linux-gnu"

%struct._zend_executor_globals = type { %struct._zval_struct, %struct._zval_struct, [32 x ptr], ptr, ptr, %struct._zend_array, %struct._zend_array, ptr, i32, i32, ptr, ptr, ptr, ptr, ptr, ptr, i64, ptr, ptr, i32, i32, i64, i32, i32, i32, i8, i8, %struct.zend_atomic_bool_s, %struct.zend_atomic_bool_s, ptr, i64, ptr, ptr, %struct._zend_array, %struct._zend_array, i32, i8, %struct._zval_struct, %struct._zval_struct, %struct._zend_stack, %struct._zend_stack, %struct._zend_stack, ptr, i32, i32, i64, ptr, ptr, ptr, %struct._zend_objects_store, ptr, ptr, ptr, [3 x %struct._zend_op], ptr, i8, i8, i64, i32, i32, ptr, [16 x %struct._HashTableIterator], ptr, %union._zend_function, %struct._zend_op, %struct._zend_array, i64, %struct.zend_get_gc_buffer, ptr, ptr, ptr, i64, i8, i32, ptr, ptr, i64, %struct._zend_call_stack, i64, i64, [6 x ptr] }
%struct.zend_atomic_bool_s = type { i8 }
%struct._zval_struct = type { %union._zend_value, %union.anon, %union.anon.2 }
%union._zend_value = type { i64 }
%union.anon = type { i32 }
%union.anon.2 = type { i32 }
%struct._zend_stack = type { i32, i32, i32, ptr }
%struct._zend_objects_store = type { ptr, i32, i32, i32 }
%struct._HashTableIterator = type { ptr, i32, i32 }
%union._zend_function = type { %struct._zend_op_array }
%struct._zend_op_array = type { i8, [3 x i8], i32, ptr, ptr, ptr, i32, i32, ptr, ptr, ptr, ptr, i32, i32, i32, i32, ptr, ptr, ptr, ptr, ptr, i32, i32, ptr, ptr, ptr, i32, i32, i32, i32, ptr, ptr, [6 x ptr] }
%struct._zend_op = type { ptr, %union._znode_op, %union._znode_op, %union._znode_op, i32, i32, i8, i8, i8, i8 }
%union._znode_op = type { i32 }
%struct._zend_array = type { %struct._zend_refcounted_h, %union.anon.4, i32, %union.anon.6, i32, i32, i32, i32, i64, ptr }
%struct._zend_refcounted_h = type { i32, %union.anon.3 }
%union.anon.3 = type { i32 }
%union.anon.4 = type { i32 }
%union.anon.6 = type { ptr }
%struct.zend_get_gc_buffer = type { ptr, ptr, ptr }
%struct._zend_call_stack = type { ptr, i64 }
%struct._php_core_globals = type { i64, i8, i8, i8, i8, i8, i8, i8, i8, ptr, ptr, i64, i64, i64, ptr, ptr, ptr, ptr, ptr, i8, ptr, ptr, ptr, ptr, i64, ptr, ptr, ptr, ptr, ptr, ptr, ptr, %struct._arg_separators, ptr, %struct._zend_array, i16, i8, i8, %struct._zend_llist, [6 x %struct._zval_struct], i8, i8, i8, i8, i8, ptr, ptr, i64, [8 x i8], i8, i8, i8, i8, i8, i8, i32, i32, ptr, ptr, ptr, ptr, i64, i64, ptr, i64, ptr, ptr, i8, i8, i8, i8, i8, i8, i64, ptr, i64, i64 }
%struct._arg_separators = type { ptr, ptr }
%struct._zend_llist = type { ptr, ptr, i64, i64, ptr, i8, ptr }
%struct._sapi_module_struct = type { ptr, ptr, ptr, ptr, ptr, ptr, ptr, ptr, ptr, ptr, ptr, ptr, ptr, ptr, ptr, ptr, ptr, ptr, ptr, ptr, ptr, ptr, ptr, ptr, i32, i32, ptr, ptr, ptr, ptr, ptr, ptr, i32, ptr, ptr, ptr }
%struct.anon.0 = type { i8, i8, %union.anon.1 }
%union.anon.1 = type { i16 }

@executor_globals = external global %struct._zend_executor_globals, align 8
@core_globals = external global %struct._php_core_globals, align 8
@sapi_module = external global %struct._sapi_module_struct, align 8

; Function Attrs: nounwind uwtable
define internal zeroext i1 @php_auto_globals_create_get(ptr noundef %0) #0 {
  %2 = alloca ptr, align 8
  %3 = alloca ptr, align 8
  %4 = alloca ptr, align 8
  %5 = alloca ptr, align 8
  %6 = alloca ptr, align 8
  %7 = alloca ptr, align 8
  %8 = alloca ptr, align 8
  %9 = alloca ptr, align 8
  store ptr %0, ptr %7, align 8
  %10 = load ptr, ptr getelementptr inbounds (%struct._php_core_globals, ptr @core_globals, i32 0, i32 33), align 8
  %11 = icmp ne ptr %10, null
  br i1 %11, label %12, label %22

12:                                               ; preds = %1
  %13 = load ptr, ptr getelementptr inbounds (%struct._php_core_globals, ptr @core_globals, i32 0, i32 33), align 8
  %14 = call ptr @strchr(ptr noundef %13, i32 noundef 71) #11
  %15 = icmp ne ptr %14, null
  br i1 %15, label %20, label %16

16:                                               ; preds = %12
  %17 = load ptr, ptr getelementptr inbounds (%struct._php_core_globals, ptr @core_globals, i32 0, i32 33), align 8
  %18 = call ptr @strchr(ptr noundef %17, i32 noundef 103) #11
  %19 = icmp ne ptr %18, null
  br i1 %19, label %20, label %22

20:                                               ; preds = %16, %12
  %21 = load ptr, ptr getelementptr inbounds (%struct._sapi_module_struct, ptr @sapi_module, i32 0, i32 22), align 8
  call void %21(i32 noundef 1, ptr noundef null, ptr noundef null)
  br label %58

22:                                               ; preds = %16, %1
  store ptr getelementptr inbounds (%struct._php_core_globals, ptr @core_globals, i32 0, i32 39, i64 1), ptr %6, align 8
  %23 = load ptr, ptr %6, align 8
  %24 = getelementptr inbounds %struct._zval_struct, ptr %23, i32 0, i32 1
  %25 = getelementptr inbounds %struct.anon.0, ptr %24, i32 0, i32 1
  %26 = load i8, ptr %25, align 1
  %27 = zext i8 %26 to i32
  %28 = icmp ne i32 %27, 0
  br i1 %28, label %29, label %49

29:                                               ; preds = %22
  %30 = load ptr, ptr %6, align 8
  store ptr %30, ptr %4, align 8
  %31 = load ptr, ptr %4, align 8
  %32 = getelementptr inbounds %struct._zval_struct, ptr %31, i32 0, i32 1
  %33 = getelementptr inbounds %struct.anon.0, ptr %32, i32 0, i32 1
  %34 = load i8, ptr %33, align 1
  %35 = zext i8 %34 to i32
  %36 = icmp ne i32 %35, 0
  call void @llvm.assume(i1 %36)
  %37 = load ptr, ptr %4, align 8
  %38 = load ptr, ptr %37, align 8
  store ptr %38, ptr %3, align 8
  %39 = load ptr, ptr %3, align 8
  %40 = load i32, ptr %39, align 4
  %41 = icmp ugt i32 %40, 0
  call void @llvm.assume(i1 %41)
  %42 = load ptr, ptr %3, align 8
  %43 = load i32, ptr %42, align 4
  %44 = add i32 %43, -1
  store i32 %44, ptr %42, align 4
  %45 = icmp ne i32 %44, 0
  br i1 %45, label %49, label %46

46:                                               ; preds = %29
  %47 = load ptr, ptr %6, align 8
  %48 = load ptr, ptr %47, align 8
  call void @rc_dtor_func(ptr noundef %48) #13
  br label %49

49:                                               ; preds = %46, %29, %22
  br label %50

50:                                               ; preds = %49
  %51 = call ptr @_zend_new_array_0()
  store ptr %51, ptr %8, align 8
  store ptr getelementptr inbounds (%struct._php_core_globals, ptr @core_globals, i32 0, i32 39, i64 1), ptr %9, align 8
  %52 = load ptr, ptr %8, align 8
  %53 = load ptr, ptr %9, align 8
  %54 = getelementptr inbounds %struct._zval_struct, ptr %53, i32 0, i32 0
  store ptr %52, ptr %54, align 8
  %55 = load ptr, ptr %9, align 8
  %56 = getelementptr inbounds %struct._zval_struct, ptr %55, i32 0, i32 1
  store i32 775, ptr %56, align 8
  br label %57

57:                                               ; preds = %50
  br label %58

58:                                               ; preds = %57, %20
  %59 = load ptr, ptr %7, align 8
  %60 = call ptr @zend_hash_update(ptr noundef getelementptr inbounds (%struct._zend_executor_globals, ptr @executor_globals, i32 0, i32 5), ptr noundef %59, ptr noundef getelementptr inbounds (%struct._php_core_globals, ptr @core_globals, i32 0, i32 39, i64 1))
  store ptr getelementptr inbounds (%struct._php_core_globals, ptr @core_globals, i32 0, i32 39, i64 1), ptr %5, align 8
  %61 = load ptr, ptr %5, align 8
  %62 = getelementptr inbounds %struct._zval_struct, ptr %61, i32 0, i32 1
  %63 = getelementptr inbounds %struct.anon.0, ptr %62, i32 0, i32 1
  %64 = load i8, ptr %63, align 1
  %65 = zext i8 %64 to i32
  %66 = icmp ne i32 %65, 0
  call void @llvm.assume(i1 %66)
  %67 = load ptr, ptr %5, align 8
  %68 = load ptr, ptr %67, align 8
  store ptr %68, ptr %2, align 8
  %69 = load ptr, ptr %2, align 8
  %70 = load i32, ptr %69, align 4
  %71 = add i32 %70, 1
  store i32 %71, ptr %69, align 4
  ret i1 false
}