; Function Attrs: nounwind uwtable
define internal noundef zeroext i1 @php_auto_globals_create_get(ptr noundef %0) #0 {
  %2 = load ptr, ptr getelementptr inbounds (%struct._php_core_globals, ptr @core_globals, i64 0, i32 33), align 8
  %.not = icmp eq ptr %2, null
  br i1 %.not, label %9, label %3

3:                                                ; preds = %1
  %4 = tail call ptr @strchr(ptr noundef nonnull dereferenceable(1) %2, i32 noundef 71) #15
  %.not14 = icmp eq ptr %4, null
  br i1 %.not14, label %5, label %7

5:                                                ; preds = %3
  %6 = tail call ptr @strchr(ptr noundef nonnull dereferenceable(1) %2, i32 noundef 103) #15
  %.not15 = icmp eq ptr %6, null
  br i1 %.not15, label %9, label %7

7:                                                ; preds = %5, %3
  %8 = load ptr, ptr getelementptr inbounds (%struct._sapi_module_struct, ptr @sapi_module, i64 0, i32 22), align 8
  tail call void %8(i32 noundef 1, ptr noundef null, ptr noundef null) #17
  br label %20

9:                                                ; preds = %5, %1
  %10 = load i8, ptr getelementptr inbounds (%struct.anon.0, ptr getelementptr inbounds (%struct._php_core_globals, ptr @core_globals, i64 0, i32 39, i64 1, i32 1), i64 0, i32 1), align 1
  %.not16 = icmp eq i8 %10, 0
  br i1 %.not16, label %18, label %11

11:                                               ; preds = %9
  %12 = load ptr, ptr getelementptr inbounds (%struct._php_core_globals, ptr @core_globals, i64 0, i32 39, i64 1), align 8
  %13 = load i32, ptr %12, align 4
  %14 = icmp ne i32 %13, 0
  tail call void @llvm.assume(i1 %14)
  %15 = add i32 %13, -1
  store i32 %15, ptr %12, align 4
  %.not17 = icmp eq i32 %15, 0
  br i1 %.not17, label %16, label %18

16:                                               ; preds = %11
  %17 = load ptr, ptr getelementptr inbounds (%struct._php_core_globals, ptr @core_globals, i64 0, i32 39, i64 1), align 8
  tail call void @rc_dtor_func(ptr noundef %17) #17
  br label %18

18:                                               ; preds = %9, %11, %16
  %19 = tail call ptr @_zend_new_array_0() #17
  store ptr %19, ptr getelementptr inbounds (%struct._php_core_globals, ptr @core_globals, i64 0, i32 39, i64 1), align 8
  store i32 775, ptr getelementptr inbounds (%struct._php_core_globals, ptr @core_globals, i64 0, i32 39, i64 1, i32 1), align 8
  br label %20

20:                                               ; preds = %18, %7
  %21 = tail call ptr @zend_hash_update(ptr noundef nonnull getelementptr inbounds (%struct._zend_executor_globals, ptr @executor_globals, i64 0, i32 5), ptr noundef %0, ptr noundef nonnull getelementptr inbounds (%struct._php_core_globals, ptr @core_globals, i64 0, i32 39, i64 1)) #17
  %22 = load i8, ptr getelementptr inbounds (%struct.anon.0, ptr getelementptr inbounds (%struct._php_core_globals, ptr @core_globals, i64 0, i32 39, i64 1, i32 1), i64 0, i32 1), align 1
  %23 = icmp ne i8 %22, 0
  tail call void @llvm.assume(i1 %23)
  %24 = load ptr, ptr getelementptr inbounds (%struct._php_core_globals, ptr @core_globals, i64 0, i32 39, i64 1), align 8
  %25 = load i32, ptr %24, align 4
  %26 = add i32 %25, 1
  store i32 %26, ptr %24, align 4
  ret i1 false
}